target datalayout = "e-m:e-p270:32:32-p271:32:32-p272:64:64-i64:64-i128:128-f80:128-n8:16:32:64-S128"
target triple = "x86_64-pc-linux-gnu"

%struct.asn1_string_st = type { i32, i32, ptr, i64 }

@.str = private unnamed_addr constant [126 x i8] c"generated/home/dtcxzyw/WorkSpace/Projects/compilers/llvm-opt-benchmark/bench/libquic/libquic/boringssl/crypto/asn1/a_bitstr.c\00", align 1

; Function Attrs: nounwind uwtable
define hidden ptr @c2i_ASN1_BIT_STRING(ptr noundef %0, ptr noundef %1, i64 noundef %2) #0 {
  %4 = alloca ptr, align 8
  %5 = alloca ptr, align 8
  %6 = alloca ptr, align 8
  %7 = alloca i64, align 8
  %8 = alloca ptr, align 8
  %9 = alloca ptr, align 8
  %10 = alloca ptr, align 8
  %11 = alloca i32, align 4
  %12 = alloca i32, align 4
  store ptr %0, ptr %5, align 8, !tbaa !25
  store ptr %1, ptr %6, align 8, !tbaa !15
  store i64 %2, ptr %7, align 8, !tbaa !27
  call void @llvm.lifetime.start.p0(i64 8, ptr %8) #7
  store ptr null, ptr %8, align 8, !tbaa !6
  call void @llvm.lifetime.start.p0(i64 8, ptr %9) #7
  call void @llvm.lifetime.start.p0(i64 8, ptr %10) #7
  call void @llvm.lifetime.start.p0(i64 4, ptr %11) #7
  %13 = load i64, ptr %7, align 8, !tbaa !27
  %14 = icmp slt i64 %13, 1
  br i1 %14, label %15, label %16

15:                                               ; preds = %3
  call void @ERR_put_error(i32 noundef 12, i32 noundef 0, i32 noundef 174, ptr noundef @.str, i32 noundef 135)
  br label %112

16:                                               ; preds = %3
  %17 = load ptr, ptr %5, align 8, !tbaa !25
  %18 = icmp eq ptr %17, null
  br i1 %18, label %23, label %19

19:                                               ; preds = %16
  %20 = load ptr, ptr %5, align 8, !tbaa !25
  %21 = load ptr, ptr %20, align 8, !tbaa !6
  %22 = icmp eq ptr %21, null
  br i1 %22, label %23, label %28

23:                                               ; preds = %19, %16
  %24 = call ptr @ASN1_STRING_type_new(i32 noundef 3)
  store ptr %24, ptr %8, align 8, !tbaa !6
  %25 = icmp eq ptr %24, null
  br i1 %25, label %26, label %27

26:                                               ; preds = %23
  store ptr null, ptr %4, align 8
  store i32 1, ptr %12, align 4
  br label %126

27:                                               ; preds = %23
  br label %31

28:                                               ; preds = %19
  %29 = load ptr, ptr %5, align 8, !tbaa !25
  %30 = load ptr, ptr %29, align 8, !tbaa !6
  store ptr %30, ptr %8, align 8, !tbaa !6
  br label %31

31:                                               ; preds = %28, %27
  %32 = load ptr, ptr %6, align 8, !tbaa !15
  %33 = load ptr, ptr %32, align 8, !tbaa !11
  store ptr %33, ptr %9, align 8, !tbaa !11
  %34 = load ptr, ptr %9, align 8, !tbaa !11
  %35 = getelementptr inbounds nuw i8, ptr %34, i32 1
  store ptr %35, ptr %9, align 8, !tbaa !11
  %36 = load i8, ptr %34, align 1, !tbaa !22
  %37 = zext i8 %36 to i32
  store i32 %37, ptr %11, align 4, !tbaa !13
  %38 = load i32, ptr %11, align 4, !tbaa !13
  %39 = icmp sgt i32 %38, 7
  br i1 %39, label %40, label %41

40:                                               ; preds = %31
  call void @ERR_put_error(i32 noundef 12, i32 noundef 0, i32 noundef 141, ptr noundef @.str, i32 noundef 148)
  br label %112

41:                                               ; preds = %31
  %42 = load ptr, ptr %8, align 8, !tbaa !6
  %43 = getelementptr inbounds nuw %struct.asn1_string_st, ptr %42, i32 0, i32 3
  %44 = load i64, ptr %43, align 8, !tbaa !20
  %45 = and i64 %44, -16
  store i64 %45, ptr %43, align 8, !tbaa !20
  %46 = load i32, ptr %11, align 4, !tbaa !13
  %47 = or i32 8, %46
  %48 = sext i32 %47 to i64
  %49 = load ptr, ptr %8, align 8, !tbaa !6
  %50 = getelementptr inbounds nuw %struct.asn1_string_st, ptr %49, i32 0, i32 3
  %51 = load i64, ptr %50, align 8, !tbaa !20
  %52 = or i64 %51, %48
  store i64 %52, ptr %50, align 8, !tbaa !20
  %53 = load i64, ptr %7, align 8, !tbaa !27
  %54 = add nsw i64 %53, -1
  store i64 %54, ptr %7, align 8, !tbaa !27
  %55 = icmp sgt i64 %53, 1
  br i1 %55, label %56, label %83

56:                                               ; preds = %41
  %57 = load i64, ptr %7, align 8, !tbaa !27
  %58 = trunc i64 %57 to i32
  %59 = sext i32 %58 to i64
  %60 = call noalias ptr @malloc(i64 noundef %59) #8
  store ptr %60, ptr %10, align 8, !tbaa !11
  %61 = load ptr, ptr %10, align 8, !tbaa !11
  %62 = icmp eq ptr %61, null
  br i1 %62, label %63, label %64

63:                                               ; preds = %56
  call void @ERR_put_error(i32 noundef 12, i32 noundef 0, i32 noundef 65, ptr noundef @.str, i32 noundef 162)
  br label %112

64:                                               ; preds = %56
  %65 = load ptr, ptr %10, align 8, !tbaa !11
  %66 = load ptr, ptr %9, align 8, !tbaa !11
  %67 = load i64, ptr %7, align 8, !tbaa !27
  %68 = trunc i64 %67 to i32
  %69 = sext i32 %68 to i64
  call void @llvm.memcpy.p0.p0.i64(ptr align 1 %65, ptr align 1 %66, i64 %69, i1 false)
  %70 = load i32, ptr %11, align 4, !tbaa !13
  %71 = shl i32 255, %70
  %72 = load ptr, ptr %10, align 8, !tbaa !11
  %73 = load i64, ptr %7, align 8, !tbaa !27
  %74 = sub nsw i64 %73, 1
  %75 = getelementptr inbounds i8, ptr %72, i64 %74
  %76 = load i8, ptr %75, align 1, !tbaa !22
  %77 = zext i8 %76 to i32
  %78 = and i32 %77, %71
  %79 = trunc i32 %78 to i8
  store i8 %79, ptr %75, align 1, !tbaa !22
  %80 = load i64, ptr %7, align 8, !tbaa !27
  %81 = load ptr, ptr %9, align 8, !tbaa !11
  %82 = getelementptr inbounds i8, ptr %81, i64 %80
  store ptr %82, ptr %9, align 8, !tbaa !11
  br label %84

83:                                               ; preds = %41
  store ptr null, ptr %10, align 8, !tbaa !11
  br label %84

84:                                               ; preds = %83, %64
  %85 = load i64, ptr %7, align 8, !tbaa !27
  %86 = trunc i64 %85 to i32
  %87 = load ptr, ptr %8, align 8, !tbaa !6
  %88 = getelementptr inbounds nuw %struct.asn1_string_st, ptr %87, i32 0, i32 0
  store i32 %86, ptr %88, align 8, !tbaa !17
  %89 = load ptr, ptr %8, align 8, !tbaa !6
  %90 = getelementptr inbounds nuw %struct.asn1_string_st, ptr %89, i32 0, i32 2
  %91 = load ptr, ptr %90, align 8, !tbaa !21
  %92 = icmp ne ptr %91, null
  br i1 %92, label %93, label %97

93:                                               ; preds = %84
  %94 = load ptr, ptr %8, align 8, !tbaa !6
  %95 = getelementptr inbounds nuw %struct.asn1_string_st, ptr %94, i32 0, i32 2
  %96 = load ptr, ptr %95, align 8, !tbaa !21
  call void @free(ptr noundef %96) #7
  br label %97

97:                                               ; preds = %93, %84
  %98 = load ptr, ptr %10, align 8, !tbaa !11
  %99 = load ptr, ptr %8, align 8, !tbaa !6
  %100 = getelementptr inbounds nuw %struct.asn1_string_st, ptr %99, i32 0, i32 2
  store ptr %98, ptr %100, align 8, !tbaa !21
  %101 = load ptr, ptr %8, align 8, !tbaa !6
  %102 = getelementptr inbounds nuw %struct.asn1_string_st, ptr %101, i32 0, i32 1
  store i32 3, ptr %102, align 4, !tbaa !28
  %103 = load ptr, ptr %5, align 8, !tbaa !25
  %104 = icmp ne ptr %103, null
  br i1 %104, label %105, label %108

105:                                              ; preds = %97
  %106 = load ptr, ptr %8, align 8, !tbaa !6
  %107 = load ptr, ptr %5, align 8, !tbaa !25
  store ptr %106, ptr %107, align 8, !tbaa !6
  br label %108

108:                                              ; preds = %105, %97
  %109 = load ptr, ptr %9, align 8, !tbaa !11
  %110 = load ptr, ptr %6, align 8, !tbaa !15
  store ptr %109, ptr %110, align 8, !tbaa !11
  %111 = load ptr, ptr %8, align 8, !tbaa !6
  store ptr %111, ptr %4, align 8
  store i32 1, ptr %12, align 4
  br label %126

112:                                              ; preds = %63, %40, %15
  %113 = load ptr, ptr %8, align 8, !tbaa !6
  %114 = icmp ne ptr %113, null
  br i1 %114, label %115, label %125

115:                                              ; preds = %112
  %116 = load ptr, ptr %5, align 8, !tbaa !25
  %117 = icmp eq ptr %116, null
  br i1 %117, label %123, label %118

118:                                              ; preds = %115
  %119 = load ptr, ptr %5, align 8, !tbaa !25
  %120 = load ptr, ptr %119, align 8, !tbaa !6
  %121 = load ptr, ptr %8, align 8, !tbaa !6
  %122 = icmp ne ptr %120, %121
  br i1 %122, label %123, label %125

123:                                              ; preds = %118, %115
  %124 = load ptr, ptr %8, align 8, !tbaa !6
  call void @ASN1_STRING_free(ptr noundef %124)
  br label %125

125:                                              ; preds = %123, %118, %112
  store ptr null, ptr %4, align 8
  store i32 1, ptr %12, align 4
  br label %126

126:                                              ; preds = %125, %108, %26
  call void @llvm.lifetime.end.p0(i64 4, ptr %11) #7
  call void @llvm.lifetime.end.p0(i64 8, ptr %10) #7
  call void @llvm.lifetime.end.p0(i64 8, ptr %9) #7
  call void @llvm.lifetime.end.p0(i64 8, ptr %8) #7
  %127 = load ptr, ptr %4, align 8
  ret ptr %127
}