; Function Attrs: nounwind uwtable
define hidden ptr @c2i_ASN1_BIT_STRING(ptr noundef captures(address_is_null) %0, ptr noundef captures(none) %1, i64 noundef %2) local_unnamed_addr #0 {
  %4 = icmp slt i64 %2, 1
  br i1 %4, label %50, label %5

5:                                                ; preds = %3
  %6 = icmp eq ptr %0, null
  br i1 %6, label %10, label %7

7:                                                ; preds = %5
  %8 = load ptr, ptr %0, align 8, !tbaa !20
  %9 = icmp eq ptr %8, null
  br i1 %9, label %10, label %13

10:                                               ; preds = %7, %5
  %11 = tail call ptr @ASN1_STRING_type_new(i32 noundef 3) #9
  %12 = icmp eq ptr %11, null
  br i1 %12, label %55, label %13

13:                                               ; preds = %7, %10
  %.1 = phi ptr [ %11, %10 ], [ %8, %7 ]
  %14 = load ptr, ptr %1, align 8, !tbaa !19
  %15 = getelementptr inbounds nuw i8, ptr %14, i64 1
  %16 = load i8, ptr %14, align 1, !tbaa !16
  %17 = zext i8 %16 to i32
  %18 = icmp ugt i8 %16, 7
  br i1 %18, label %19, label %20

19:                                               ; preds = %13
  tail call void @ERR_put_error(i32 noundef 12, i32 noundef 0, i32 noundef 141, ptr noundef nonnull @.str, i32 noundef 148) #9
  br label %51

20:                                               ; preds = %13
  %21 = getelementptr inbounds nuw i8, ptr %.1, i64 16
  %22 = load i64, ptr %21, align 8, !tbaa !14
  %23 = and i64 %22, -16
  %24 = or disjoint i32 %17, 8
  %25 = zext nneg i32 %24 to i64
  %26 = or disjoint i64 %23, %25
  store i64 %26, ptr %21, align 8, !tbaa !14
  %27 = add nsw i64 %2, -1
  %.not = icmp eq i64 %2, 1
  br i1 %.not, label %41, label %28

28:                                               ; preds = %20
  %sext = shl i64 %27, 32
  %29 = ashr exact i64 %sext, 32
  %30 = tail call noalias ptr @malloc(i64 noundef %29) #10
  %31 = icmp eq ptr %30, null
  br i1 %31, label %32, label %33

32:                                               ; preds = %28
  tail call void @ERR_put_error(i32 noundef 12, i32 noundef 0, i32 noundef 65, ptr noundef nonnull @.str, i32 noundef 162) #9
  br label %51

33:                                               ; preds = %28
  tail call void @llvm.memcpy.p0.p0.i64(ptr nonnull align 1 %30, ptr nonnull align 1 %15, i64 %29, i1 false)
  %34 = shl nuw nsw i32 255, %17
  %35 = getelementptr i8, ptr %30, i64 %2
  %36 = getelementptr i8, ptr %35, i64 -2
  %37 = load i8, ptr %36, align 1, !tbaa !16
  %38 = trunc i32 %34 to i8
  %39 = and i8 %37, %38
  store i8 %39, ptr %36, align 1, !tbaa !16
  %40 = getelementptr i8, ptr %14, i64 %2
  br label %41

41:                                               ; preds = %20, %33
  %.040 = phi ptr [ %40, %33 ], [ %15, %20 ]
  %.039 = phi ptr [ %30, %33 ], [ null, %20 ]
  %42 = trunc i64 %27 to i32
  store i32 %42, ptr %.1, align 8, !tbaa !6
  %43 = getelementptr inbounds nuw i8, ptr %.1, i64 8
  %44 = load ptr, ptr %43, align 8, !tbaa !15
  %.not50 = icmp eq ptr %44, null
  br i1 %.not50, label %46, label %45

45:                                               ; preds = %41
  tail call void @free(ptr noundef nonnull %44) #9
  br label %46

46:                                               ; preds = %45, %41
  store ptr %.039, ptr %43, align 8, !tbaa !15
  %47 = getelementptr inbounds nuw i8, ptr %.1, i64 4
  store i32 3, ptr %47, align 4, !tbaa !22
  br i1 %6, label %49, label %48

48:                                               ; preds = %46
  store ptr %.1, ptr %0, align 8, !tbaa !20
  br label %49

49:                                               ; preds = %48, %46
  store ptr %.040, ptr %1, align 8, !tbaa !19
  br label %55

50:                                               ; preds = %3
  tail call void @ERR_put_error(i32 noundef 12, i32 noundef 0, i32 noundef 174, ptr noundef nonnull @.str, i32 noundef 135) #9
  br label %55

51:                                               ; preds = %19, %32
  br i1 %6, label %54, label %52

52:                                               ; preds = %51
  %53 = load ptr, ptr %0, align 8, !tbaa !20
  %.not53 = icmp eq ptr %53, %.1
  br i1 %.not53, label %55, label %54

54:                                               ; preds = %52, %51
  tail call void @ASN1_STRING_free(ptr noundef nonnull %.1) #9
  br label %55

55:                                               ; preds = %50, %52, %54, %10, %49
  %.0 = phi ptr [ %.1, %49 ], [ null, %10 ], [ null, %54 ], [ null, %52 ], [ null, %50 ]
  ret ptr %.0
}